; Function Attrs: mustprogress nofree norecurse nosync nounwind willreturn memory(read, inaccessiblemem: none) uwtable
define internal fastcc zeroext i8 @half_horz(ptr noundef readonly byval(%struct.BlockXY) align 8 captures(none) %0) unnamed_addr #7 {
  %.sroa.069.0.copyload = load i32, ptr %0, align 8, !tbaa !61
  %.sroa.470.0..sroa_idx = getelementptr inbounds nuw i8, ptr %0, i64 4
  %.sroa.470.0.copyload = load i32, ptr %.sroa.470.0..sroa_idx, align 4, !tbaa !61
  %.sroa.571.0..sroa_idx = getelementptr inbounds nuw i8, ptr %0, i64 8
  %.sroa.571.0.copyload = load i32, ptr %.sroa.571.0..sroa_idx, align 8, !tbaa !61
  %.sroa.672.0..sroa_idx = getelementptr inbounds nuw i8, ptr %0, i64 12
  %.sroa.672.0.copyload = load i32, ptr %.sroa.672.0..sroa_idx, align 4, !tbaa !61
  %.sroa.773.0..sroa_idx = getelementptr inbounds nuw i8, ptr %0, i64 16
  %.sroa.773.0.copyload = load i32, ptr %.sroa.773.0..sroa_idx, align 8, !tbaa !61
  %.sroa.1074.0..sroa_idx = getelementptr inbounds nuw i8, ptr %0, i64 20
  %.sroa.1074.0.copyload = load i32, ptr %.sroa.1074.0..sroa_idx, align 4, !tbaa !61
  %.sroa.1175.0..sroa_idx = getelementptr inbounds nuw i8, ptr %0, i64 24
  %.sroa.1175.0.copyload = load i32, ptr %.sroa.1175.0..sroa_idx, align 8, !tbaa !61
  %.sroa.1277.0..sroa_idx = getelementptr inbounds nuw i8, ptr %0, i64 32
  %.sroa.1277.0.copyload = load ptr, ptr %.sroa.1277.0..sroa_idx, align 8, !tbaa !84
  %.sroa.1378.0..sroa_idx = getelementptr inbounds nuw i8, ptr %0, i64 40
  %.sroa.1378.0.copyload = load i32, ptr %.sroa.1378.0..sroa_idx, align 8, !tbaa !61
  %2 = add nsw i32 %.sroa.773.0.copyload, -1
  %3 = add nsw i32 %.sroa.773.0.copyload, 1
  %4 = icmp eq i32 %.sroa.773.0.copyload, 0
  %.not.i = icmp sge i32 %.sroa.1074.0.copyload, %.sroa.1175.0.copyload
  %or.cond.not = select i1 %4, i1 %.not.i, i1 false
  br i1 %or.cond.not, label %5, label %7

5:                                                ; preds = %1
  %6 = add nsw i32 %.sroa.1175.0.copyload, -1
  br label %pget.exit

7:                                                ; preds = %1
  %8 = icmp sgt i32 %.sroa.773.0.copyload, -1
  %9 = icmp sgt i32 %.sroa.1074.0.copyload, -2
  %or.cond.i = select i1 %8, i1 %9, i1 false
  br i1 %or.cond.i, label %pget.exit, label %10

10:                                               ; preds = %7
  %11 = icmp eq i32 %.sroa.1074.0.copyload, -2
  %or.cond5.i = select i1 %4, i1 %11, i1 false
  br i1 %or.cond5.i, label %pget.exit, label %12

12:                                               ; preds = %10
  %13 = icmp eq i32 %2, -2
  %14 = icmp eq i32 %.sroa.1074.0.copyload, -1
  %or.cond8.i = select i1 %13, i1 %14, i1 false
  %spec.select.i = select i1 %or.cond8.i, i32 -1, i32 %2
  %spec.select13.i = select i1 %or.cond8.i, i32 0, i32 %.sroa.1074.0.copyload
  br label %pget.exit

pget.exit:                                        ; preds = %5, %7, %10, %12
  %.sroa.7.0.i = phi i32 [ -1, %5 ], [ %2, %7 ], [ 0, %10 ], [ %spec.select.i, %12 ]
  %.sroa.12.0.i = phi i32 [ %6, %5 ], [ %.sroa.1074.0.copyload, %7 ], [ -1, %10 ], [ %spec.select13.i, %12 ]
  %15 = add nsw i32 %.sroa.12.0.i, %.sroa.672.0.copyload
  %16 = add nsw i32 %.sroa.470.0.copyload, -1
  %17 = icmp slt i32 %15, 0
  %..i14.i = tail call i32 @llvm.smin.i32(i32 %15, i32 %16)
  %.0.i15.i = select i1 %17, i32 0, i32 %..i14.i
  %18 = add nsw i32 %.sroa.7.0.i, %.sroa.571.0.copyload
  %19 = add nsw i32 %.sroa.069.0.copyload, -1
  %20 = icmp slt i32 %18, 0
  %..i.i = tail call i32 @llvm.smin.i32(i32 %18, i32 %19)
  %.0.i.i = select i1 %20, i32 0, i32 %..i.i
  %21 = mul nsw i32 %.0.i15.i, %.sroa.1378.0.copyload
  %22 = add nsw i32 %21, %.0.i.i
  %23 = sext i32 %22 to i64
  %24 = getelementptr inbounds i8, ptr %.sroa.1277.0.copyload, i64 %23
  %25 = load i8, ptr %24, align 1, !tbaa !51
  %26 = icmp eq i32 %.sroa.773.0.copyload, -1
  %or.cond81.not = select i1 %26, i1 %.not.i, i1 false
  br i1 %or.cond81.not, label %27, label %29

27:                                               ; preds = %pget.exit
  %28 = add nsw i32 %.sroa.1175.0.copyload, -1
  br label %pget.exit29

29:                                               ; preds = %pget.exit
  %30 = icmp sgt i32 %.sroa.773.0.copyload, -2
  %31 = icmp sgt i32 %.sroa.1074.0.copyload, -2
  %or.cond.i16 = select i1 %30, i1 %31, i1 false
  br i1 %or.cond.i16, label %pget.exit29, label %32

32:                                               ; preds = %29
  %33 = icmp eq i32 %.sroa.1074.0.copyload, -2
  %or.cond5.i17 = select i1 %26, i1 %33, i1 false
  br i1 %or.cond5.i17, label %pget.exit29, label %34

34:                                               ; preds = %32
  %35 = icmp eq i32 %.sroa.773.0.copyload, -2
  %36 = icmp eq i32 %.sroa.1074.0.copyload, -1
  %or.cond8.i18 = select i1 %35, i1 %36, i1 false
  %spec.select.i19 = select i1 %or.cond8.i18, i32 -1, i32 %.sroa.773.0.copyload
  %spec.select13.i20 = select i1 %or.cond8.i18, i32 0, i32 %.sroa.1074.0.copyload
  br label %pget.exit29

pget.exit29:                                      ; preds = %27, %29, %32, %34
  %.sroa.7.0.i21 = phi i32 [ -1, %27 ], [ %.sroa.773.0.copyload, %29 ], [ 0, %32 ], [ %spec.select.i19, %34 ]
  %.sroa.12.0.i22 = phi i32 [ %28, %27 ], [ %.sroa.1074.0.copyload, %29 ], [ -1, %32 ], [ %spec.select13.i20, %34 ]
  %37 = add nsw i32 %.sroa.12.0.i22, %.sroa.672.0.copyload
  %38 = icmp slt i32 %37, 0
  %..i14.i23 = tail call i32 @llvm.smin.i32(i32 %37, i32 %16)
  %.0.i15.i24 = select i1 %38, i32 0, i32 %..i14.i23
  %39 = add nsw i32 %.sroa.7.0.i21, %.sroa.571.0.copyload
  %40 = icmp slt i32 %39, 0
  %..i.i25 = tail call i32 @llvm.smin.i32(i32 %39, i32 %19)
  %.0.i.i26 = select i1 %40, i32 0, i32 %..i.i25
  %41 = mul nsw i32 %.0.i15.i24, %.sroa.1378.0.copyload
  %42 = add nsw i32 %41, %.0.i.i26
  %43 = sext i32 %42 to i64
  %44 = getelementptr inbounds i8, ptr %.sroa.1277.0.copyload, i64 %43
  %45 = load i8, ptr %44, align 1, !tbaa !51
  %46 = icmp eq i32 %3, -1
  %or.cond83.not = select i1 %46, i1 %.not.i, i1 false
  br i1 %or.cond83.not, label %47, label %49

47:                                               ; preds = %pget.exit29
  %48 = add nsw i32 %.sroa.1175.0.copyload, -1
  br label %pget.exit58

49:                                               ; preds = %pget.exit29
  %50 = icmp sgt i32 %.sroa.773.0.copyload, -3
  %51 = icmp sgt i32 %.sroa.1074.0.copyload, -2
  %or.cond.i45 = select i1 %50, i1 %51, i1 false
  br i1 %or.cond.i45, label %pget.exit58, label %52

52:                                               ; preds = %49
  %53 = icmp eq i32 %.sroa.1074.0.copyload, -2
  %or.cond5.i46 = select i1 %46, i1 %53, i1 false
  br i1 %or.cond5.i46, label %pget.exit58, label %54

54:                                               ; preds = %52
  %55 = icmp eq i32 %3, -2
  %56 = icmp eq i32 %.sroa.1074.0.copyload, -1
  %or.cond8.i47 = select i1 %55, i1 %56, i1 false
  %spec.select.i48 = select i1 %or.cond8.i47, i32 -1, i32 %3
  %spec.select13.i49 = select i1 %or.cond8.i47, i32 0, i32 %.sroa.1074.0.copyload
  br label %pget.exit58

pget.exit58:                                      ; preds = %47, %49, %52, %54
  %.sroa.7.0.i50 = phi i32 [ -1, %47 ], [ %3, %49 ], [ 0, %52 ], [ %spec.select.i48, %54 ]
  %.sroa.12.0.i51 = phi i32 [ %48, %47 ], [ %.sroa.1074.0.copyload, %49 ], [ -1, %52 ], [ %spec.select13.i49, %54 ]
  %57 = zext i8 %45 to i16
  %58 = zext i8 %25 to i16
  %59 = add nsw i32 %.sroa.12.0.i51, %.sroa.672.0.copyload
  %60 = icmp slt i32 %59, 0
  %..i14.i52 = tail call i32 @llvm.smin.i32(i32 %59, i32 %16)
  %.0.i15.i53 = select i1 %60, i32 0, i32 %..i14.i52
  %61 = add nsw i32 %.sroa.7.0.i50, %.sroa.571.0.copyload
  %62 = icmp slt i32 %61, 0
  %..i.i54 = tail call i32 @llvm.smin.i32(i32 %61, i32 %19)
  %.0.i.i55 = select i1 %62, i32 0, i32 %..i.i54
  %63 = mul nsw i32 %.0.i15.i53, %.sroa.1378.0.copyload
  %64 = add nsw i32 %63, %.0.i.i55
  %65 = sext i32 %64 to i64
  %66 = getelementptr inbounds i8, ptr %.sroa.1277.0.copyload, i64 %65
  %67 = load i8, ptr %66, align 1, !tbaa !51
  %68 = zext i8 %67 to i16
  %reass.add.i = shl nuw nsw i16 %57, 1
  %69 = add nuw nsw i16 %reass.add.i, %58
  %70 = add nuw nsw i16 %69, %68
  %71 = lshr i16 %70, 1
  %72 = add nuw nsw i16 %71, 1
  %73 = lshr i16 %72, 1
  %74 = trunc nuw i16 %73 to i8
  ret i8 %74
}